; Function Attrs: mustprogress nofree norecurse nosync nounwind willreturn memory(argmem: write, inaccessiblemem: readwrite) uwtable
define void @_ZThn16_N3gmx15EnergySignaller23registerLoggingCallbackEv(ptr dead_on_unwind noalias nocapture writable writeonly sret(%"class.std::optional") align 8 %0, ptr noundef %1) unnamed_addr #5 align 2 personality ptr @__gxx_personality_v0 {
  %3 = getelementptr inbounds i8, ptr %1, i64 -16
  tail call void @llvm.experimental.noalias.scope.decl(metadata !19)
  %4 = getelementptr inbounds i8, ptr %1, i64 120
  store i8 1, ptr %4, align 8, !noalias !19
  %5 = getelementptr inbounds i8, ptr %0, i64 16
  %6 = getelementptr inbounds i8, ptr %0, i64 24
  %7 = getelementptr inbounds i8, ptr %0, i64 8
  store i64 0, ptr %7, align 8, !alias.scope !19
  %8 = ptrtoint ptr %3 to i64
  store i64 %8, ptr %0, align 8, !alias.scope !19
  store ptr @"_ZNSt17_Function_handlerIFvldEZN3gmx15EnergySignaller23registerLoggingCallbackEvE3$_0E9_M_invokeERKSt9_Any_dataOlOd", ptr %6, align 8, !alias.scope !19
  store ptr @"_ZNSt17_Function_handlerIFvldEZN3gmx15EnergySignaller23registerLoggingCallbackEvE3$_0E10_M_managerERSt9_Any_dataRKS5_St18_Manager_operation", ptr %5, align 8, !alias.scope !19
  %9 = getelementptr inbounds i8, ptr %0, i64 32
  store i8 1, ptr %9, align 8, !alias.scope !19
  ret void
}